; Function Attrs: mustprogress nounwind uwtable
define internal void @_ZN12_GLOBAL__N_122TransformActionReplaceD2Ev(ptr noundef nonnull align 8 dereferenceable(24) %0) unnamed_addr #6 align 2 personality ptr @__gxx_personality_v0 {
  store ptr getelementptr inbounds ({ [8 x ptr] }, ptr @_ZTVN12_GLOBAL__N_122TransformActionReplaceE, i64 0, i32 0, i64 2), ptr %0, align 8
  %2 = getelementptr inbounds i8, ptr %0, i64 16
  %3 = load ptr, ptr %2, align 8
  %.not.i = icmp eq ptr %3, null
  br i1 %.not.i, label %_ZNSt10unique_ptrI21cmStringReplaceHelperSt14default_deleteIS0_EED2Ev.exit, label %4

4:                                                ; preds = %1
  tail call void @_ZNKSt14default_deleteI21cmStringReplaceHelperEclEPS0_(ptr noundef nonnull align 1 dereferenceable(1) %2, ptr noundef nonnull %3)
  br label %_ZNSt10unique_ptrI21cmStringReplaceHelperSt14default_deleteIS0_EED2Ev.exit

_ZNSt10unique_ptrI21cmStringReplaceHelperSt14default_deleteIS0_EED2Ev.exit: ; preds = %1, %4
  store ptr null, ptr %2, align 8
  ret void
}